; Function Attrs: mustprogress uwtable
define dso_local void @_Z20previewImageExamplesv() local_unnamed_addr #5 personality ptr @__gxx_personality_v0 {
  %1 = alloca %"class.Imf_3_4::Array2D.0", align 8
  %2 = tail call noundef nonnull align 8 dereferenceable(8) ptr @_ZSt16__ostream_insertIcSt11char_traitsIcEERSt13basic_ostreamIT_T0_ES6_PKS3_l(ptr noundef nonnull align 8 dereferenceable(8) @_ZSt4cout, ptr noundef nonnull @.str, i64 noundef 27)
  %3 = load ptr, ptr @_ZSt4cout, align 8, !tbaa !42
  %4 = getelementptr i8, ptr %3, i64 -24
  %5 = load i64, ptr %4, align 8
  %6 = getelementptr inbounds i8, ptr @_ZSt4cout, i64 %5
  %7 = getelementptr inbounds nuw i8, ptr %6, i64 240
  %8 = load ptr, ptr %7, align 8, !tbaa !44
  %.not.i.i.i = icmp eq ptr %8, null
  br i1 %.not.i.i.i, label %9, label %_ZSt13__check_facetISt5ctypeIcEERKT_PS3_.exit.i.i

9:                                                ; preds = %0
  tail call void @_ZSt16__throw_bad_castv() #15
  unreachable

_ZSt13__check_facetISt5ctypeIcEERKT_PS3_.exit.i.i: ; preds = %0
  %10 = getelementptr inbounds nuw i8, ptr %8, i64 56
  %11 = load i8, ptr %10, align 8, !tbaa !60
  %.not.i1.i.i = icmp eq i8 %11, 0
  br i1 %.not.i1.i.i, label %15, label %12

12:                                               ; preds = %_ZSt13__check_facetISt5ctypeIcEERKT_PS3_.exit.i.i
  %13 = getelementptr inbounds nuw i8, ptr %8, i64 67
  %14 = load i8, ptr %13, align 1, !tbaa !26
  br label %_ZSt4endlIcSt11char_traitsIcEERSt13basic_ostreamIT_T0_ES6_.exit

15:                                               ; preds = %_ZSt13__check_facetISt5ctypeIcEERKT_PS3_.exit.i.i
  tail call void @_ZNKSt5ctypeIcE13_M_widen_initEv(ptr noundef nonnull align 8 dereferenceable(570) %8)
  %16 = load ptr, ptr %8, align 8, !tbaa !42
  %17 = getelementptr inbounds nuw i8, ptr %16, i64 48
  %18 = load ptr, ptr %17, align 8
  %19 = tail call noundef signext i8 %18(ptr noundef nonnull align 8 dereferenceable(570) %8, i8 noundef signext 10)
  br label %_ZSt4endlIcSt11char_traitsIcEERSt13basic_ostreamIT_T0_ES6_.exit

_ZSt4endlIcSt11char_traitsIcEERSt13basic_ostreamIT_T0_ES6_.exit: ; preds = %12, %15
  %.0.i.i.i = phi i8 [ %14, %12 ], [ %19, %15 ]
  %20 = tail call noundef nonnull align 8 dereferenceable(8) ptr @_ZNSo3putEc(ptr noundef nonnull align 8 dereferenceable(8) @_ZSt4cout, i8 noundef signext %.0.i.i.i)
  %21 = tail call noundef nonnull align 8 dereferenceable(8) ptr @_ZNSo5flushEv(ptr noundef nonnull align 8 dereferenceable(8) %20)
  %22 = tail call noundef nonnull align 8 dereferenceable(8) ptr @_ZSt16__ostream_insertIcSt11char_traitsIcEERSt13basic_ostreamIT_T0_ES6_PKS3_l(ptr noundef nonnull align 8 dereferenceable(8) @_ZSt4cout, ptr noundef nonnull @.str.1, i64 noundef 31)
  %23 = load ptr, ptr @_ZSt4cout, align 8, !tbaa !42
  %24 = getelementptr i8, ptr %23, i64 -24
  %25 = load i64, ptr %24, align 8
  %26 = getelementptr inbounds i8, ptr @_ZSt4cout, i64 %25
  %27 = getelementptr inbounds nuw i8, ptr %26, i64 240
  %28 = load ptr, ptr %27, align 8, !tbaa !44
  %.not.i.i.i11 = icmp eq ptr %28, null
  br i1 %.not.i.i.i11, label %29, label %_ZSt13__check_facetISt5ctypeIcEERKT_PS3_.exit.i.i12

29:                                               ; preds = %_ZSt4endlIcSt11char_traitsIcEERSt13basic_ostreamIT_T0_ES6_.exit
  tail call void @_ZSt16__throw_bad_castv() #15
  unreachable

_ZSt13__check_facetISt5ctypeIcEERKT_PS3_.exit.i.i12: ; preds = %_ZSt4endlIcSt11char_traitsIcEERSt13basic_ostreamIT_T0_ES6_.exit
  %30 = getelementptr inbounds nuw i8, ptr %28, i64 56
  %31 = load i8, ptr %30, align 8, !tbaa !60
  %.not.i1.i.i13 = icmp eq i8 %31, 0
  br i1 %.not.i1.i.i13, label %35, label %32

32:                                               ; preds = %_ZSt13__check_facetISt5ctypeIcEERKT_PS3_.exit.i.i12
  %33 = getelementptr inbounds nuw i8, ptr %28, i64 67
  %34 = load i8, ptr %33, align 1, !tbaa !26
  br label %_ZSt4endlIcSt11char_traitsIcEERSt13basic_ostreamIT_T0_ES6_.exit15

35:                                               ; preds = %_ZSt13__check_facetISt5ctypeIcEERKT_PS3_.exit.i.i12
  tail call void @_ZNKSt5ctypeIcE13_M_widen_initEv(ptr noundef nonnull align 8 dereferenceable(570) %28)
  %36 = load ptr, ptr %28, align 8, !tbaa !42
  %37 = getelementptr inbounds nuw i8, ptr %36, i64 48
  %38 = load ptr, ptr %37, align 8
  %39 = tail call noundef signext i8 %38(ptr noundef nonnull align 8 dereferenceable(570) %28, i8 noundef signext 10)
  br label %_ZSt4endlIcSt11char_traitsIcEERSt13basic_ostreamIT_T0_ES6_.exit15

_ZSt4endlIcSt11char_traitsIcEERSt13basic_ostreamIT_T0_ES6_.exit15: ; preds = %32, %35
  %.0.i.i.i14 = phi i8 [ %34, %32 ], [ %39, %35 ]
  %40 = tail call noundef nonnull align 8 dereferenceable(8) ptr @_ZNSo3putEc(ptr noundef nonnull align 8 dereferenceable(8) @_ZSt4cout, i8 noundef signext %.0.i.i.i14)
  %41 = tail call noundef nonnull align 8 dereferenceable(8) ptr @_ZNSo5flushEv(ptr noundef nonnull align 8 dereferenceable(8) %40)
  call void @llvm.lifetime.start.p0(i64 24, ptr nonnull %1) #12
  store i64 600, ptr %1, align 8, !tbaa !66
  %42 = getelementptr inbounds nuw i8, ptr %1, i64 8
  store i64 800, ptr %42, align 8, !tbaa !67
  %43 = tail call noalias noundef nonnull dereferenceable(3840000) ptr @_Znam(i64 noundef 3840000) #13
  %44 = getelementptr inbounds nuw i8, ptr %1, i64 16
  store ptr %43, ptr %44, align 8, !tbaa !32
  invoke void @_Z10drawImage1RN7Imf_3_47Array2DINS_4RgbaEEEii(ptr noundef nonnull align 8 dereferenceable(24) %1, i32 noundef 800, i32 noundef 600)
          to label %45 unwind label %88

45:                                               ; preds = %_ZSt4endlIcSt11char_traitsIcEERSt13basic_ostreamIT_T0_ES6_.exit15
  invoke void @_Z21writeRgbaWithPreview1PKcRKN7Imf_3_47Array2DINS1_4RgbaEEEii(ptr noundef nonnull @.str.2, ptr noundef nonnull align 8 dereferenceable(24) %1, i32 noundef 800, i32 noundef 600)
          to label %46 unwind label %88

46:                                               ; preds = %45
  %47 = invoke noundef nonnull align 8 dereferenceable(8) ptr @_ZSt16__ostream_insertIcSt11char_traitsIcEERSt13basic_ostreamIT_T0_ES6_PKS3_l(ptr noundef nonnull align 8 dereferenceable(8) @_ZSt4cout, ptr noundef nonnull @.str.3, i64 noundef 32)
          to label %_ZStlsISt11char_traitsIcEERSt13basic_ostreamIcT_ES5_PKc.exit unwind label %88

_ZStlsISt11char_traitsIcEERSt13basic_ostreamIcT_ES5_PKc.exit: ; preds = %46
  %48 = load ptr, ptr @_ZSt4cout, align 8, !tbaa !42
  %49 = getelementptr i8, ptr %48, i64 -24
  %50 = load i64, ptr %49, align 8
  %51 = getelementptr inbounds i8, ptr @_ZSt4cout, i64 %50
  %52 = getelementptr inbounds nuw i8, ptr %51, i64 240
  %53 = load ptr, ptr %52, align 8, !tbaa !44
  %.not.i.i.i16 = icmp eq ptr %53, null
  br i1 %.not.i.i.i16, label %.invoke, label %_ZSt13__check_facetISt5ctypeIcEERKT_PS3_.exit.i.i17

_ZSt13__check_facetISt5ctypeIcEERKT_PS3_.exit.i.i17: ; preds = %_ZStlsISt11char_traitsIcEERSt13basic_ostreamIcT_ES5_PKc.exit
  %54 = getelementptr inbounds nuw i8, ptr %53, i64 56
  %55 = load i8, ptr %54, align 8, !tbaa !60
  %.not.i1.i.i18 = icmp eq i8 %55, 0
  br i1 %.not.i1.i.i18, label %59, label %56

56:                                               ; preds = %_ZSt13__check_facetISt5ctypeIcEERKT_PS3_.exit.i.i17
  %57 = getelementptr inbounds nuw i8, ptr %53, i64 67
  %58 = load i8, ptr %57, align 1, !tbaa !26
  br label %_ZNKSt9basic_iosIcSt11char_traitsIcEE5widenEc.exit.i

59:                                               ; preds = %_ZSt13__check_facetISt5ctypeIcEERKT_PS3_.exit.i.i17
  invoke void @_ZNKSt5ctypeIcE13_M_widen_initEv(ptr noundef nonnull align 8 dereferenceable(570) %53)
          to label %.noexc20 unwind label %88

.noexc20:                                         ; preds = %59
  %60 = load ptr, ptr %53, align 8, !tbaa !42
  %61 = getelementptr inbounds nuw i8, ptr %60, i64 48
  %62 = load ptr, ptr %61, align 8
  %63 = invoke noundef signext i8 %62(ptr noundef nonnull align 8 dereferenceable(570) %53, i8 noundef signext 10)
          to label %_ZNKSt9basic_iosIcSt11char_traitsIcEE5widenEc.exit.i unwind label %88

_ZNKSt9basic_iosIcSt11char_traitsIcEE5widenEc.exit.i: ; preds = %.noexc20, %56
  %.0.i.i.i19 = phi i8 [ %58, %56 ], [ %63, %.noexc20 ]
  %64 = invoke noundef nonnull align 8 dereferenceable(8) ptr @_ZNSo3putEc(ptr noundef nonnull align 8 dereferenceable(8) @_ZSt4cout, i8 noundef signext %.0.i.i.i19)
          to label %.noexc22 unwind label %88

.noexc22:                                         ; preds = %_ZNKSt9basic_iosIcSt11char_traitsIcEE5widenEc.exit.i
  %65 = invoke noundef nonnull align 8 dereferenceable(8) ptr @_ZNSo5flushEv(ptr noundef nonnull align 8 dereferenceable(8) %64)
          to label %_ZNSolsEPFRSoS_E.exit unwind label %88

_ZNSolsEPFRSoS_E.exit:                            ; preds = %.noexc22
  invoke void @_Z21writeRgbaWithPreview2PKcii(ptr noundef nonnull @.str.4, i32 noundef 800, i32 noundef 600)
          to label %66 unwind label %88

66:                                               ; preds = %_ZNSolsEPFRSoS_E.exit
  %67 = load ptr, ptr @_ZSt4cout, align 8, !tbaa !42
  %68 = getelementptr i8, ptr %67, i64 -24
  %69 = load i64, ptr %68, align 8
  %70 = getelementptr inbounds i8, ptr @_ZSt4cout, i64 %69
  %71 = getelementptr inbounds nuw i8, ptr %70, i64 240
  %72 = load ptr, ptr %71, align 8, !tbaa !44
  %.not.i.i.i25 = icmp eq ptr %72, null
  br i1 %.not.i.i.i25, label %.invoke, label %_ZSt13__check_facetISt5ctypeIcEERKT_PS3_.exit.i.i26

.invoke:                                          ; preds = %66, %_ZStlsISt11char_traitsIcEERSt13basic_ostreamIcT_ES5_PKc.exit
  invoke void @_ZSt16__throw_bad_castv() #15
          to label %.cont unwind label %88

.cont:                                            ; preds = %.invoke
  unreachable

_ZSt13__check_facetISt5ctypeIcEERKT_PS3_.exit.i.i26: ; preds = %66
  %73 = getelementptr inbounds nuw i8, ptr %72, i64 56
  %74 = load i8, ptr %73, align 8, !tbaa !60
  %.not.i1.i.i27 = icmp eq i8 %74, 0
  br i1 %.not.i1.i.i27, label %78, label %75

75:                                               ; preds = %_ZSt13__check_facetISt5ctypeIcEERKT_PS3_.exit.i.i26
  %76 = getelementptr inbounds nuw i8, ptr %72, i64 67
  %77 = load i8, ptr %76, align 1, !tbaa !26
  br label %_ZNKSt9basic_iosIcSt11char_traitsIcEE5widenEc.exit.i28

78:                                               ; preds = %_ZSt13__check_facetISt5ctypeIcEERKT_PS3_.exit.i.i26
  invoke void @_ZNKSt5ctypeIcE13_M_widen_initEv(ptr noundef nonnull align 8 dereferenceable(570) %72)
          to label %.noexc31 unwind label %88

.noexc31:                                         ; preds = %78
  %79 = load ptr, ptr %72, align 8, !tbaa !42
  %80 = getelementptr inbounds nuw i8, ptr %79, i64 48
  %81 = load ptr, ptr %80, align 8
  %82 = invoke noundef signext i8 %81(ptr noundef nonnull align 8 dereferenceable(570) %72, i8 noundef signext 10)
          to label %_ZNKSt9basic_iosIcSt11char_traitsIcEE5widenEc.exit.i28 unwind label %88

_ZNKSt9basic_iosIcSt11char_traitsIcEE5widenEc.exit.i28: ; preds = %.noexc31, %75
  %.0.i.i.i29 = phi i8 [ %77, %75 ], [ %82, %.noexc31 ]
  %83 = invoke noundef nonnull align 8 dereferenceable(8) ptr @_ZNSo3putEc(ptr noundef nonnull align 8 dereferenceable(8) @_ZSt4cout, i8 noundef signext %.0.i.i.i29)
          to label %.noexc33 unwind label %88

.noexc33:                                         ; preds = %_ZNKSt9basic_iosIcSt11char_traitsIcEE5widenEc.exit.i28
  %84 = invoke noundef nonnull align 8 dereferenceable(8) ptr @_ZNSo5flushEv(ptr noundef nonnull align 8 dereferenceable(8) %83)
          to label %_ZNSolsEPFRSoS_E.exit9 unwind label %88

_ZNSolsEPFRSoS_E.exit9:                           ; preds = %.noexc33
  %85 = load ptr, ptr %44, align 8, !tbaa !32
  %86 = icmp eq ptr %85, null
  br i1 %86, label %_ZN7Imf_3_47Array2DINS_4RgbaEED2Ev.exit, label %87

87:                                               ; preds = %_ZNSolsEPFRSoS_E.exit9
  call void @_ZdaPv(ptr noundef nonnull %85) #14
  br label %_ZN7Imf_3_47Array2DINS_4RgbaEED2Ev.exit

_ZN7Imf_3_47Array2DINS_4RgbaEED2Ev.exit:          ; preds = %_ZNSolsEPFRSoS_E.exit9, %87
  call void @llvm.lifetime.end.p0(i64 24, ptr nonnull %1) #12
  ret void

88:                                               ; preds = %.invoke, %.noexc33, %_ZNKSt9basic_iosIcSt11char_traitsIcEE5widenEc.exit.i28, %.noexc31, %78, %.noexc22, %_ZNKSt9basic_iosIcSt11char_traitsIcEE5widenEc.exit.i, %.noexc20, %59, %46, %_ZNSolsEPFRSoS_E.exit, %45, %_ZSt4endlIcSt11char_traitsIcEERSt13basic_ostreamIT_T0_ES6_.exit15
  %89 = landingpad { ptr, i32 }
          cleanup
  %90 = load ptr, ptr %44, align 8, !tbaa !32
  %91 = icmp eq ptr %90, null
  br i1 %91, label %_ZN7Imf_3_47Array2DINS_4RgbaEED2Ev.exit10, label %92

92:                                               ; preds = %88
  call void @_ZdaPv(ptr noundef nonnull %90) #14
  br label %_ZN7Imf_3_47Array2DINS_4RgbaEED2Ev.exit10

_ZN7Imf_3_47Array2DINS_4RgbaEED2Ev.exit10:        ; preds = %88, %92
  call void @llvm.lifetime.end.p0(i64 24, ptr nonnull %1) #12
  resume { ptr, i32 } %89
}